; Function Attrs: mustprogress uwtable
define hidden noundef zeroext i1 @_ZN4cvc58internal5proof31LfscProofLetifyTraverseCallback14shouldTraverseEPKNS0_9ProofNodeE(ptr nonnull readnone align 8 captures(none) %0, ptr noundef nonnull %1) unnamed_addr #4 align 2 personality ptr @__gxx_personality_v0 {
  %3 = alloca %"class.cvc5::internal::NodeTemplate", align 8
  %4 = tail call noundef i32 @_ZNK4cvc58internal9ProofNode7getRuleEv(ptr noundef nonnull align 8 dereferenceable(65) %1)
  %5 = icmp eq i32 %4, 1
  br i1 %5, label %43, label %6

6:                                                ; preds = %2
  %7 = tail call noundef i32 @_ZNK4cvc58internal9ProofNode7getRuleEv(ptr noundef nonnull align 8 dereferenceable(65) %1)
  %.not = icmp eq i32 %7, 154
  br i1 %.not, label %8, label %43

8:                                                ; preds = %6
  %9 = tail call noundef nonnull align 8 dereferenceable(24) ptr @_ZNK4cvc58internal9ProofNode12getArgumentsEv(ptr noundef nonnull align 8 dereferenceable(65) %1)
  %10 = load ptr, ptr %9, align 8, !tbaa !17
  %11 = load ptr, ptr %10, align 8, !tbaa !3
  store ptr %11, ptr %3, align 8, !tbaa !3
  %12 = load i64, ptr %11, align 8
  %13 = lshr i64 %12, 40
  %14 = trunc nuw nsw i64 %13 to i32
  %15 = and i32 %14, 1048575
  %16 = icmp samesign ult i32 %15, 1048574
  br i1 %16, label %17, label %22, !prof !15

17:                                               ; preds = %8
  %18 = add i64 %12, 1099511627776
  %19 = and i64 %18, 1152920405095219200
  %20 = and i64 %12, -1152920405095219201
  %21 = or disjoint i64 %19, %20
  store i64 %21, ptr %11, align 8
  br label %_ZN4cvc58internal12NodeTemplateILb1EEC2ERKS2_.exit

22:                                               ; preds = %8
  %23 = icmp eq i32 %15, 1048574
  br i1 %23, label %24, label %_ZN4cvc58internal12NodeTemplateILb1EEC2ERKS2_.exit, !prof !16

24:                                               ; preds = %22
  %25 = or i64 %12, 1152920405095219200
  store i64 %25, ptr %11, align 8
  tail call void @_ZN4cvc58internal4expr9NodeValue20markRefCountMaxedOutEv(ptr noundef nonnull align 8 dereferenceable(24) %11)
  br label %_ZN4cvc58internal12NodeTemplateILb1EEC2ERKS2_.exit

_ZN4cvc58internal12NodeTemplateILb1EEC2ERKS2_.exit: ; preds = %17, %22, %24
  %26 = invoke noundef i32 @_ZN4cvc58internal5proof11getLfscRuleENS0_12NodeTemplateILb1EEE(ptr noundef nonnull %3)
          to label %27 unwind label %41

27:                                               ; preds = %_ZN4cvc58internal12NodeTemplateILb1EEC2ERKS2_.exit
  %28 = load i64, ptr %11, align 8
  %29 = and i64 %28, 1152920405095219200
  %.not.i.i = icmp eq i64 %29, 1152920405095219200
  br i1 %.not.i.i, label %_ZN4cvc58internal12NodeTemplateILb1EED2Ev.exit, label %30, !prof !16

30:                                               ; preds = %27
  %31 = add i64 %28, 1152920405095219200
  %32 = and i64 %31, 1152920405095219200
  %33 = and i64 %28, -1152920405095219201
  %34 = or disjoint i64 %32, %33
  store i64 %34, ptr %11, align 8
  %35 = icmp eq i64 %32, 0
  br i1 %35, label %36, label %_ZN4cvc58internal12NodeTemplateILb1EED2Ev.exit, !prof !16

36:                                               ; preds = %30
  invoke void @_ZN4cvc58internal4expr9NodeValue15markForDeletionEv(ptr noundef nonnull align 8 dereferenceable(24) %11)
          to label %_ZN4cvc58internal12NodeTemplateILb1EED2Ev.exit unwind label %37

37:                                               ; preds = %36
  %38 = landingpad { ptr, i32 }
          catch ptr null
  %39 = extractvalue { ptr, i32 } %38, 0
  tail call void @__clang_call_terminate(ptr %39) #14
  unreachable

_ZN4cvc58internal12NodeTemplateILb1EED2Ev.exit:   ; preds = %27, %30, %36
  %40 = icmp ne i32 %26, 13
  br label %43

41:                                               ; preds = %_ZN4cvc58internal12NodeTemplateILb1EEC2ERKS2_.exit
  %42 = landingpad { ptr, i32 }
          cleanup
  call void @_ZN4cvc58internal12NodeTemplateILb1EED2Ev(ptr noundef nonnull align 8 dereferenceable(8) %3) #13
  resume { ptr, i32 } %42

43:                                               ; preds = %6, %2, %_ZN4cvc58internal12NodeTemplateILb1EED2Ev.exit
  %.0 = phi i1 [ %40, %_ZN4cvc58internal12NodeTemplateILb1EED2Ev.exit ], [ false, %2 ], [ true, %6 ]
  ret i1 %.0
}